; Function Attrs: nounwind uwtable
define hidden void @_glfwInputMouseClick(ptr noundef %0, i32 noundef %1, i32 noundef %2, i32 noundef %3) local_unnamed_addr #0 {
  %or.cond = icmp ugt i32 %1, 7
  br i1 %or.cond, label %22, label %5

5:                                                ; preds = %4
  %6 = getelementptr inbounds nuw i8, ptr %0, i64 136
  %7 = load i32, ptr %6, align 8, !tbaa !52
  %.not = icmp eq i32 %7, 0
  %8 = and i32 %3, -49
  %spec.select = select i1 %.not, i32 %8, i32 %3
  %9 = icmp eq i32 %2, 0
  br i1 %9, label %10, label %13

10:                                               ; preds = %5
  %11 = getelementptr inbounds nuw i8, ptr %0, i64 132
  %12 = load i32, ptr %11, align 4, !tbaa !56
  %.not19 = icmp eq i32 %12, 0
  br i1 %.not19, label %13, label %15

13:                                               ; preds = %10, %5
  %14 = trunc i32 %2 to i8
  br label %15

15:                                               ; preds = %10, %13
  %.sink = phi i8 [ %14, %13 ], [ 3, %10 ]
  %16 = getelementptr inbounds nuw i8, ptr %0, i64 144
  %17 = zext nneg i32 %1 to i64
  %18 = getelementptr inbounds nuw [8 x i8], ptr %16, i64 0, i64 %17
  store i8 %.sink, ptr %18, align 1, !tbaa !3
  %19 = getelementptr inbounds nuw i8, ptr %0, i64 792
  %20 = load ptr, ptr %19, align 8, !tbaa !57
  %.not20 = icmp eq ptr %20, null
  br i1 %.not20, label %22, label %21

21:                                               ; preds = %15
  tail call void %20(ptr noundef nonnull %0, i32 noundef %1, i32 noundef %2, i32 noundef %spec.select) #12
  br label %22

22:                                               ; preds = %4, %21, %15
  ret void
}